(lp1
(dp2
Vcc
p3
I15
sVcc:preconj
p4
I37
sVnmod:tmod
p5
I29
sVccomp
p6
I20
sVexpl
p7
I35
sVnsubjpass
p8
I13
sVcsubj
p9
I38
sVconj
p10
I16
sVdobj
p11
I8
sVdiscourse
p12
I39
sVneg
p13
I30
sVcsubjpass
p14
I22
sVmark
p15
I3
sVauxpass
p16
I14
sVmwe
p17
I31
sVadvcl
p18
I17
sVaux
p19
I21
sVROOT
p20
I0
sVparataxis
p21
I32
sVxcomp
p22
I25
sVnsubj
p23
I2
sVnmod:npmod
p24
I27
sVnummod
p25
I23
sVadvmod
p26
I5
sVpunct
p27
I12
sVcompound
p28
I11
sVcompound:prt
p29
I28
sVnmod:poss
p30
I6
sVcase
p31
I9
sVcop
p32
I18
sVdep
p33
I24
sVappos
p34
I26
sVdet
p35
I1
sVnmod
p36
I10
sVamod
p37
I7
sVacl:relcl
p38
I19
sViobj
p39
I36
sVdet:predet
p40
I33
sVroot
p41
I34
sVacl
p42
I4
sa.